; Function Attrs: nounwind uwtable
define ptr @l_Lake_addDeclFieldCore(ptr noundef %0, ptr noundef %1, ptr noundef %2) local_unnamed_addr #0 {
  %4 = tail call ptr @lean_mk_syntax_ident(ptr noundef %0) #6
  %5 = load ptr, ptr @l_Lake_instToLeanArrayMkStr1___rarg___closed__1, align 8, !tbaa !12
  %6 = load ptr, ptr @l_Lake_addDeclFieldCore___closed__4, align 8, !tbaa !12
  %7 = load ptr, ptr @l_Lake_addDeclFieldCore___closed__6, align 8, !tbaa !12
  %8 = tail call ptr @l_Lean_Syntax_node3(ptr noundef %5, ptr noundef %6, ptr noundef %4, ptr noundef %7, ptr noundef %1) #6
  %9 = tail call ptr @lean_array_push(ptr noundef %2, ptr noundef %8) #6
  ret ptr %9
}